
smode.elf:     file format elf64-littleriscv


Disassembly of section .text:

0000000050000000 <_kcode_start>:
    50000000:	00105117          	auipc	sp,0x105
    50000004:	00010113          	mv	sp,sp
    50000008:	00002197          	auipc	gp,0x2
    5000000c:	88818193          	addi	gp,gp,-1912 # 50001890 <__global_pointer$>
    50000010:	0001                	nop
    50000012:	0001                	nop
    50000014:	62c1                	lui	t0,0x10
    50000016:	32fd                	addiw	t0,t0,-1 # ffff <__pt_size+0xefff>
    50000018:	30229073          	csrw	medeleg,t0
    5000001c:	30329073          	csrw	mideleg,t0
    50000020:	30002373          	csrr	t1,mstatus
    50000024:	73f9                	lui	t2,0xffffe
    50000026:	7ff3839b          	addiw	t2,t2,2047 # ffffffffffffe7ff <__stack_top__+0xffffffffafef97ff>
    5000002a:	00737333          	and	t1,t1,t2
    5000002e:	6285                	lui	t0,0x1
    50000030:	8002829b          	addiw	t0,t0,-2048 # 800 <__pt_size-0x800>
    50000034:	00536333          	or	t1,t1,t0
    50000038:	30031073          	csrw	mstatus,t1
    5000003c:	4281                	li	t0,0
    5000003e:	30429073          	csrw	mie,t0
    50000042:	34429073          	csrw	mip,t0
    50000046:	00000297          	auipc	t0,0x0
    5000004a:	27628293          	addi	t0,t0,630 # 500002bc <_cstart>
    5000004e:	34129073          	csrw	mepc,t0
    50000052:	00000297          	auipc	t0,0x0
    50000056:	01e28293          	addi	t0,t0,30 # 50000070 <m_trap_handler>
    5000005a:	30529073          	csrw	mtvec,t0
    5000005e:	094000ef          	jal	500000f2 <dump_csrs>
    50000062:	30200073          	mret
    50000066:	256000ef          	jal	500002bc <_cstart>

000000005000006a <halt>:
    5000006a:	0001                	nop
    5000006c:	bffd                	j	5000006a <halt>
    5000006e:	0001                	nop

0000000050000070 <m_trap_handler>:
    50000070:	06e000ef          	jal	500000de <print_in_trap>
    50000074:	07e000ef          	jal	500000f2 <dump_csrs>
    50000078:	a001                	j	50000078 <m_trap_handler+0x8>

000000005000007a <PUT32>:
    5000007a:	0ff0000f          	fence
    5000007e:	c10c                	sw	a1,0(a0)
    50000080:	0ff0000f          	fence
    50000084:	8082                	ret

0000000050000086 <GET32>:
    50000086:	0ff0000f          	fence
    5000008a:	4108                	lw	a0,0(a0)
    5000008c:	8082                	ret

000000005000008e <PUT64>:
    5000008e:	0ff0000f          	fence
    50000092:	e10c                	sd	a1,0(a0)
    50000094:	0ff0000f          	fence
    50000098:	8082                	ret
    5000009a:	0001                	nop

000000005000009c <trap_vector>:
    5000009c:	1101                	addi	sp,sp,-32 # 50104fe0 <__stack_bottom__+0xfffe0>
    5000009e:	500017b7          	lui	a5,0x50001
    500000a2:	e04a                	sd	s2,0(sp)
    500000a4:	0887b903          	ld	s2,136(a5) # 50001088 <UART0>
    500000a8:	65f1                	lui	a1,0x1c
    500000aa:	e426                	sd	s1,8(sp)
    500000ac:	20058593          	addi	a1,a1,512 # 1c200 <__pt_size+0x1b200>
    500000b0:	854a                	mv	a0,s2
    500000b2:	500014b7          	lui	s1,0x50001
    500000b6:	e822                	sd	s0,16(sp)
    500000b8:	ec06                	sd	ra,24(sp)
    500000ba:	bc848493          	addi	s1,s1,-1080 # 50000bc8 <_kcode_end>
    500000be:	24f000ef          	jal	50000b0c <uart_init>
    500000c2:	1312d437          	lui	s0,0x1312d
    500000c6:	85a6                	mv	a1,s1
    500000c8:	854a                	mv	a0,s2
    500000ca:	199000ef          	jal	50000a62 <uart_puts>
    500000ce:	c0002773          	rdcycle	a4
    500000d2:	c00027f3          	rdcycle	a5
    500000d6:	8f99                	sub	a5,a5,a4
    500000d8:	fe87ede3          	bltu	a5,s0,500000d2 <trap_vector+0x36>
    500000dc:	b7ed                	j	500000c6 <trap_vector+0x2a>

00000000500000de <print_in_trap>:
    500000de:	500017b7          	lui	a5,0x50001
    500000e2:	0887b503          	ld	a0,136(a5) # 50001088 <UART0>
    500000e6:	500015b7          	lui	a1,0x50001
    500000ea:	bd858593          	addi	a1,a1,-1064 # 50000bd8 <_kcode_end+0x10>
    500000ee:	1750006f          	j	50000a62 <uart_puts>

00000000500000f2 <dump_csrs>:
    500000f2:	1141                	addi	sp,sp,-16
    500000f4:	500017b7          	lui	a5,0x50001
    500000f8:	e022                	sd	s0,0(sp)
    500000fa:	0887b403          	ld	s0,136(a5) # 50001088 <UART0>
    500000fe:	500015b7          	lui	a1,0x50001
    50000102:	be858593          	addi	a1,a1,-1048 # 50000be8 <_kcode_end+0x20>
    50000106:	8522                	mv	a0,s0
    50000108:	e406                	sd	ra,8(sp)
    5000010a:	159000ef          	jal	50000a62 <uart_puts>
    5000010e:	30002573          	csrr	a0,mstatus
    50000112:	19b000ef          	jal	50000aac <uart_puthex64>
    50000116:	8522                	mv	a0,s0
    50000118:	45a9                	li	a1,10
    5000011a:	117000ef          	jal	50000a30 <uart_putc>
    5000011e:	500015b7          	lui	a1,0x50001
    50000122:	8522                	mv	a0,s0
    50000124:	bf858593          	addi	a1,a1,-1032 # 50000bf8 <_kcode_end+0x30>
    50000128:	13b000ef          	jal	50000a62 <uart_puts>
    5000012c:	34102573          	csrr	a0,mepc
    50000130:	17d000ef          	jal	50000aac <uart_puthex64>
    50000134:	8522                	mv	a0,s0
    50000136:	45a9                	li	a1,10
    50000138:	0f9000ef          	jal	50000a30 <uart_putc>
    5000013c:	500015b7          	lui	a1,0x50001
    50000140:	8522                	mv	a0,s0
    50000142:	c0858593          	addi	a1,a1,-1016 # 50000c08 <_kcode_end+0x40>
    50000146:	11d000ef          	jal	50000a62 <uart_puts>
    5000014a:	30502573          	csrr	a0,mtvec
    5000014e:	15f000ef          	jal	50000aac <uart_puthex64>
    50000152:	8522                	mv	a0,s0
    50000154:	45a9                	li	a1,10
    50000156:	0db000ef          	jal	50000a30 <uart_putc>
    5000015a:	500015b7          	lui	a1,0x50001
    5000015e:	8522                	mv	a0,s0
    50000160:	c1858593          	addi	a1,a1,-1000 # 50000c18 <_kcode_end+0x50>
    50000164:	0ff000ef          	jal	50000a62 <uart_puts>
    50000168:	34202573          	csrr	a0,mcause
    5000016c:	141000ef          	jal	50000aac <uart_puthex64>
    50000170:	8522                	mv	a0,s0
    50000172:	45a9                	li	a1,10
    50000174:	0bd000ef          	jal	50000a30 <uart_putc>
    50000178:	500015b7          	lui	a1,0x50001
    5000017c:	8522                	mv	a0,s0
    5000017e:	c2858593          	addi	a1,a1,-984 # 50000c28 <_kcode_end+0x60>
    50000182:	0e1000ef          	jal	50000a62 <uart_puts>
    50000186:	34302573          	csrr	a0,mtval
    5000018a:	123000ef          	jal	50000aac <uart_puthex64>
    5000018e:	8522                	mv	a0,s0
    50000190:	45a9                	li	a1,10
    50000192:	09f000ef          	jal	50000a30 <uart_putc>
    50000196:	500015b7          	lui	a1,0x50001
    5000019a:	8522                	mv	a0,s0
    5000019c:	c3858593          	addi	a1,a1,-968 # 50000c38 <_kcode_end+0x70>
    500001a0:	0c3000ef          	jal	50000a62 <uart_puts>
    500001a4:	30402573          	csrr	a0,mie
    500001a8:	105000ef          	jal	50000aac <uart_puthex64>
    500001ac:	8522                	mv	a0,s0
    500001ae:	45a9                	li	a1,10
    500001b0:	081000ef          	jal	50000a30 <uart_putc>
    500001b4:	500015b7          	lui	a1,0x50001
    500001b8:	8522                	mv	a0,s0
    500001ba:	c4058593          	addi	a1,a1,-960 # 50000c40 <_kcode_end+0x78>
    500001be:	0a5000ef          	jal	50000a62 <uart_puts>
    500001c2:	34402573          	csrr	a0,mip
    500001c6:	0e7000ef          	jal	50000aac <uart_puthex64>
    500001ca:	8522                	mv	a0,s0
    500001cc:	45a9                	li	a1,10
    500001ce:	063000ef          	jal	50000a30 <uart_putc>
    500001d2:	500015b7          	lui	a1,0x50001
    500001d6:	8522                	mv	a0,s0
    500001d8:	c4858593          	addi	a1,a1,-952 # 50000c48 <_kcode_end+0x80>
    500001dc:	087000ef          	jal	50000a62 <uart_puts>
    500001e0:	18002573          	csrr	a0,satp
    500001e4:	0c9000ef          	jal	50000aac <uart_puthex64>
    500001e8:	8522                	mv	a0,s0
    500001ea:	6402                	ld	s0,0(sp)
    500001ec:	60a2                	ld	ra,8(sp)
    500001ee:	45a9                	li	a1,10
    500001f0:	0141                	addi	sp,sp,16
    500001f2:	03f0006f          	j	50000a30 <uart_putc>

00000000500001f6 <kmain>:
    500001f6:	1101                	addi	sp,sp,-32
    500001f8:	500017b7          	lui	a5,0x50001
    500001fc:	e04a                	sd	s2,0(sp)
    500001fe:	0887b903          	ld	s2,136(a5) # 50001088 <UART0>
    50000202:	65f1                	lui	a1,0x1c
    50000204:	20058593          	addi	a1,a1,512 # 1c200 <__pt_size+0x1b200>
    50000208:	854a                	mv	a0,s2
    5000020a:	ec06                	sd	ra,24(sp)
    5000020c:	e822                	sd	s0,16(sp)
    5000020e:	e426                	sd	s1,8(sp)
    50000210:	0fd000ef          	jal	50000b0c <uart_init>
    50000214:	500015b7          	lui	a1,0x50001
    50000218:	854a                	mv	a0,s2
    5000021a:	c5858593          	addi	a1,a1,-936 # 50000c58 <_kcode_end+0x90>
    5000021e:	500014b7          	lui	s1,0x50001
    50000222:	041000ef          	jal	50000a62 <uart_puts>
    50000226:	c6848493          	addi	s1,s1,-920 # 50000c68 <_kcode_end+0xa0>
    5000022a:	1312d437          	lui	s0,0x1312d
    5000022e:	ec5ff0ef          	jal	500000f2 <dump_csrs>
    50000232:	85a6                	mv	a1,s1
    50000234:	854a                	mv	a0,s2
    50000236:	02d000ef          	jal	50000a62 <uart_puts>
    5000023a:	c0002773          	rdcycle	a4
    5000023e:	c00027f3          	rdcycle	a5
    50000242:	8f99                	sub	a5,a5,a4
    50000244:	fe87ede3          	bltu	a5,s0,5000023e <kmain+0x48>
    50000248:	b7dd                	j	5000022e <kmain+0x38>

000000005000024a <crc32_inc>:
    5000024a:	c99d                	beqz	a1,50000280 <crc32_inc+0x36>
    5000024c:	1582                	slli	a1,a1,0x20
    5000024e:	9181                	srli	a1,a1,0x20
    50000250:	500016b7          	lui	a3,0x50001
    50000254:	fff64613          	not	a2,a2
    50000258:	95aa                	add	a1,a1,a0
    5000025a:	c7868693          	addi	a3,a3,-904 # 50000c78 <crc32_tab>
    5000025e:	00054703          	lbu	a4,0(a0)
    50000262:	0086579b          	srliw	a5,a2,0x8
    50000266:	0505                	addi	a0,a0,1
    50000268:	8e39                	xor	a2,a2,a4
    5000026a:	0ff67613          	zext.b	a2,a2
    5000026e:	060a                	slli	a2,a2,0x2
    50000270:	9636                	add	a2,a2,a3
    50000272:	4210                	lw	a2,0(a2)
    50000274:	8e3d                	xor	a2,a2,a5
    50000276:	feb514e3          	bne	a0,a1,5000025e <crc32_inc+0x14>
    5000027a:	fff64513          	not	a0,a2
    5000027e:	8082                	ret
    50000280:	8532                	mv	a0,a2
    50000282:	8082                	ret

0000000050000284 <crc32>:
    50000284:	c995                	beqz	a1,500002b8 <crc32+0x34>
    50000286:	1582                	slli	a1,a1,0x20
    50000288:	9181                	srli	a1,a1,0x20
    5000028a:	50001637          	lui	a2,0x50001
    5000028e:	c7860613          	addi	a2,a2,-904 # 50000c78 <crc32_tab>
    50000292:	95aa                	add	a1,a1,a0
    50000294:	57fd                	li	a5,-1
    50000296:	00054683          	lbu	a3,0(a0)
    5000029a:	0087d71b          	srliw	a4,a5,0x8
    5000029e:	0505                	addi	a0,a0,1
    500002a0:	8fb5                	xor	a5,a5,a3
    500002a2:	0ff7f793          	zext.b	a5,a5
    500002a6:	078a                	slli	a5,a5,0x2
    500002a8:	97b2                	add	a5,a5,a2
    500002aa:	439c                	lw	a5,0(a5)
    500002ac:	8fb9                	xor	a5,a5,a4
    500002ae:	feb514e3          	bne	a0,a1,50000296 <crc32+0x12>
    500002b2:	fff7c513          	not	a0,a5
    500002b6:	8082                	ret
    500002b8:	4501                	li	a0,0
    500002ba:	8082                	ret

00000000500002bc <_cstart>:
    500002bc:	500017b7          	lui	a5,0x50001
    500002c0:	50001337          	lui	t1,0x50001
    500002c4:	09078693          	addi	a3,a5,144 # 50001090 <_kbss_end>
    500002c8:	09030313          	addi	t1,t1,144 # 50001090 <_kbss_end>
    500002cc:	0a66f963          	bgeu	a3,t1,5000037e <_cstart+0xc2>
    500002d0:	40d308b3          	sub	a7,t1,a3
    500002d4:	fff88613          	addi	a2,a7,-1
    500002d8:	479d                	li	a5,7
    500002da:	8736                	mv	a4,a3
    500002dc:	1ec7fe63          	bgeu	a5,a2,500004d8 <_cstart+0x21c>
    500002e0:	50001637          	lui	a2,0x50001
    500002e4:	09060613          	addi	a2,a2,144 # 50001090 <_kbss_end>
    500002e8:	00c6e7b3          	or	a5,a3,a2
    500002ec:	8b9d                	andi	a5,a5,7
    500002ee:	20079863          	bnez	a5,500004fe <_cstart+0x242>
    500002f2:	ff88f813          	andi	a6,a7,-8
    500002f6:	01060533          	add	a0,a2,a6
    500002fa:	87b2                	mv	a5,a2
    500002fc:	638c                	ld	a1,0(a5)
    500002fe:	07a1                	addi	a5,a5,8
    50000300:	0721                	addi	a4,a4,8
    50000302:	feb73c23          	sd	a1,-8(a4)
    50000306:	fea79be3          	bne	a5,a0,500002fc <_cstart+0x40>
    5000030a:	07088a63          	beq	a7,a6,5000037e <_cstart+0xc2>
    5000030e:	01060733          	add	a4,a2,a6
    50000312:	00074603          	lbu	a2,0(a4)
    50000316:	010687b3          	add	a5,a3,a6
    5000031a:	00178693          	addi	a3,a5,1
    5000031e:	00c78023          	sb	a2,0(a5)
    50000322:	0466fe63          	bgeu	a3,t1,5000037e <_cstart+0xc2>
    50000326:	00174603          	lbu	a2,1(a4)
    5000032a:	00278693          	addi	a3,a5,2
    5000032e:	00c780a3          	sb	a2,1(a5)
    50000332:	0466f663          	bgeu	a3,t1,5000037e <_cstart+0xc2>
    50000336:	00274603          	lbu	a2,2(a4)
    5000033a:	00378693          	addi	a3,a5,3
    5000033e:	00c78123          	sb	a2,2(a5)
    50000342:	0266fe63          	bgeu	a3,t1,5000037e <_cstart+0xc2>
    50000346:	00374603          	lbu	a2,3(a4)
    5000034a:	00478693          	addi	a3,a5,4
    5000034e:	00c781a3          	sb	a2,3(a5)
    50000352:	0266f663          	bgeu	a3,t1,5000037e <_cstart+0xc2>
    50000356:	00474603          	lbu	a2,4(a4)
    5000035a:	00578693          	addi	a3,a5,5
    5000035e:	00c78223          	sb	a2,4(a5)
    50000362:	0066fe63          	bgeu	a3,t1,5000037e <_cstart+0xc2>
    50000366:	00574603          	lbu	a2,5(a4)
    5000036a:	00678693          	addi	a3,a5,6
    5000036e:	00c782a3          	sb	a2,5(a5)
    50000372:	0066f663          	bgeu	a3,t1,5000037e <_cstart+0xc2>
    50000376:	00674703          	lbu	a4,6(a4)
    5000037a:	00e78323          	sb	a4,6(a5)
    5000037e:	50001837          	lui	a6,0x50001
    50000382:	50001737          	lui	a4,0x50001
    50000386:	09080793          	addi	a5,a6,144 # 50001090 <_kbss_end>
    5000038a:	09070713          	addi	a4,a4,144 # 50001090 <_kbss_end>
    5000038e:	12e7f663          	bgeu	a5,a4,500004ba <_cstart+0x1fe>
    50000392:	40f005b3          	neg	a1,a5
    50000396:	0075f693          	andi	a3,a1,7
    5000039a:	00768513          	addi	a0,a3,7
    5000039e:	48ad                	li	a7,11
    500003a0:	40f70633          	sub	a2,a4,a5
    500003a4:	11156c63          	bltu	a0,a7,500004bc <_cstart+0x200>
    500003a8:	fff60893          	addi	a7,a2,-1
    500003ac:	06a8e763          	bltu	a7,a0,5000041a <_cstart+0x15e>
    500003b0:	10068d63          	beqz	a3,500004ca <_cstart+0x20e>
    500003b4:	08080823          	sb	zero,144(a6)
    500003b8:	0065f513          	andi	a0,a1,6
    500003bc:	10050963          	beqz	a0,500004ce <_cstart+0x212>
    500003c0:	000780a3          	sb	zero,1(a5)
    500003c4:	4509                	li	a0,2
    500003c6:	12d57763          	bgeu	a0,a3,500004f4 <_cstart+0x238>
    500003ca:	00078123          	sb	zero,2(a5)
    500003ce:	8991                	andi	a1,a1,4
    500003d0:	c9e5                	beqz	a1,500004c0 <_cstart+0x204>
    500003d2:	000781a3          	sb	zero,3(a5)
    500003d6:	4591                	li	a1,4
    500003d8:	12d5f663          	bgeu	a1,a3,50000504 <_cstart+0x248>
    500003dc:	00078223          	sb	zero,4(a5)
    500003e0:	4595                	li	a1,5
    500003e2:	12b68663          	beq	a3,a1,5000050e <_cstart+0x252>
    500003e6:	000782a3          	sb	zero,5(a5)
    500003ea:	459d                	li	a1,7
    500003ec:	12b69663          	bne	a3,a1,50000518 <_cstart+0x25c>
    500003f0:	50001537          	lui	a0,0x50001
    500003f4:	00078323          	sb	zero,6(a5)
    500003f8:	09750513          	addi	a0,a0,151 # 50001097 <_kbss_end+0x7>
    500003fc:	8e15                	sub	a2,a2,a3
    500003fe:	97b6                	add	a5,a5,a3
    50000400:	ff867593          	andi	a1,a2,-8
    50000404:	00b786b3          	add	a3,a5,a1
    50000408:	0007b023          	sd	zero,0(a5)
    5000040c:	07a1                	addi	a5,a5,8
    5000040e:	fef69de3          	bne	a3,a5,50000408 <_cstart+0x14c>
    50000412:	0ab60463          	beq	a2,a1,500004ba <_cstart+0x1fe>
    50000416:	00b507b3          	add	a5,a0,a1
    5000041a:	00078023          	sb	zero,0(a5)
    5000041e:	00178693          	addi	a3,a5,1
    50000422:	08e6fc63          	bgeu	a3,a4,500004ba <_cstart+0x1fe>
    50000426:	000780a3          	sb	zero,1(a5)
    5000042a:	00278693          	addi	a3,a5,2
    5000042e:	08e6f663          	bgeu	a3,a4,500004ba <_cstart+0x1fe>
    50000432:	00078123          	sb	zero,2(a5)
    50000436:	00378693          	addi	a3,a5,3
    5000043a:	08e6f063          	bgeu	a3,a4,500004ba <_cstart+0x1fe>
    5000043e:	000781a3          	sb	zero,3(a5)
    50000442:	00478693          	addi	a3,a5,4
    50000446:	06e6fa63          	bgeu	a3,a4,500004ba <_cstart+0x1fe>
    5000044a:	00078223          	sb	zero,4(a5)
    5000044e:	00578693          	addi	a3,a5,5
    50000452:	06e6f463          	bgeu	a3,a4,500004ba <_cstart+0x1fe>
    50000456:	000782a3          	sb	zero,5(a5)
    5000045a:	00678693          	addi	a3,a5,6
    5000045e:	04e6fe63          	bgeu	a3,a4,500004ba <_cstart+0x1fe>
    50000462:	00078323          	sb	zero,6(a5)
    50000466:	00778693          	addi	a3,a5,7
    5000046a:	04e6f863          	bgeu	a3,a4,500004ba <_cstart+0x1fe>
    5000046e:	000783a3          	sb	zero,7(a5)
    50000472:	00878693          	addi	a3,a5,8
    50000476:	04e6f263          	bgeu	a3,a4,500004ba <_cstart+0x1fe>
    5000047a:	00078423          	sb	zero,8(a5)
    5000047e:	00978693          	addi	a3,a5,9
    50000482:	02e6fc63          	bgeu	a3,a4,500004ba <_cstart+0x1fe>
    50000486:	000784a3          	sb	zero,9(a5)
    5000048a:	00a78693          	addi	a3,a5,10
    5000048e:	02e6f663          	bgeu	a3,a4,500004ba <_cstart+0x1fe>
    50000492:	00078523          	sb	zero,10(a5)
    50000496:	00b78693          	addi	a3,a5,11
    5000049a:	02e6f063          	bgeu	a3,a4,500004ba <_cstart+0x1fe>
    5000049e:	000785a3          	sb	zero,11(a5)
    500004a2:	00c78693          	addi	a3,a5,12
    500004a6:	00e6fa63          	bgeu	a3,a4,500004ba <_cstart+0x1fe>
    500004aa:	00078623          	sb	zero,12(a5)
    500004ae:	00d78693          	addi	a3,a5,13
    500004b2:	00e6f463          	bgeu	a3,a4,500004ba <_cstart+0x1fe>
    500004b6:	000786a3          	sb	zero,13(a5)
    500004ba:	bb35                	j	500001f6 <kmain>
    500004bc:	8546                	mv	a0,a7
    500004be:	b5ed                	j	500003a8 <_cstart+0xec>
    500004c0:	50001537          	lui	a0,0x50001
    500004c4:	09350513          	addi	a0,a0,147 # 50001093 <_kbss_end+0x3>
    500004c8:	bf15                	j	500003fc <_cstart+0x140>
    500004ca:	853e                	mv	a0,a5
    500004cc:	bf05                	j	500003fc <_cstart+0x140>
    500004ce:	50001537          	lui	a0,0x50001
    500004d2:	09150513          	addi	a0,a0,145 # 50001091 <_kbss_end+0x1>
    500004d6:	b71d                	j	500003fc <_cstart+0x140>
    500004d8:	50001737          	lui	a4,0x50001
    500004dc:	87b6                	mv	a5,a3
    500004de:	09070713          	addi	a4,a4,144 # 50001090 <_kbss_end>
    500004e2:	00074683          	lbu	a3,0(a4)
    500004e6:	0785                	addi	a5,a5,1
    500004e8:	0705                	addi	a4,a4,1
    500004ea:	fed78fa3          	sb	a3,-1(a5)
    500004ee:	fe679ae3          	bne	a5,t1,500004e2 <_cstart+0x226>
    500004f2:	b571                	j	5000037e <_cstart+0xc2>
    500004f4:	50001537          	lui	a0,0x50001
    500004f8:	09250513          	addi	a0,a0,146 # 50001092 <_kbss_end+0x2>
    500004fc:	b701                	j	500003fc <_cstart+0x140>
    500004fe:	8732                	mv	a4,a2
    50000500:	87b6                	mv	a5,a3
    50000502:	b7c5                	j	500004e2 <_cstart+0x226>
    50000504:	50001537          	lui	a0,0x50001
    50000508:	09450513          	addi	a0,a0,148 # 50001094 <_kbss_end+0x4>
    5000050c:	bdc5                	j	500003fc <_cstart+0x140>
    5000050e:	50001537          	lui	a0,0x50001
    50000512:	09550513          	addi	a0,a0,149 # 50001095 <_kbss_end+0x5>
    50000516:	b5dd                	j	500003fc <_cstart+0x140>
    50000518:	50001537          	lui	a0,0x50001
    5000051c:	09650513          	addi	a0,a0,150 # 50001096 <_kbss_end+0x6>
    50000520:	bdf1                	j	500003fc <_cstart+0x140>

0000000050000522 <gpio_set_function>:
    50000522:	7179                	addi	sp,sp,-48
    50000524:	02051713          	slli	a4,a0,0x20
    50000528:	200017b7          	lui	a5,0x20001
    5000052c:	f022                	sd	s0,32(sp)
    5000052e:	8c478793          	addi	a5,a5,-1852 # 200008c4 <__stack_size+0x1ff008c4>
    50000532:	01e75413          	srli	s0,a4,0x1e
    50000536:	943e                	add	s0,s0,a5
    50000538:	8522                	mv	a0,s0
    5000053a:	f406                	sd	ra,40(sp)
    5000053c:	e02e                	sd	a1,0(sp)
    5000053e:	b49ff0ef          	jal	50000086 <GET32>
    50000542:	6582                	ld	a1,0(sp)
    50000544:	7779                	lui	a4,0xffffe
    50000546:	0005079b          	sext.w	a5,a0
    5000054a:	89fd                	andi	a1,a1,31
    5000054c:	0ff70713          	addi	a4,a4,255 # ffffffffffffe0ff <__stack_top__+0xffffffffafef90ff>
    50000550:	c62a                	sw	a0,12(sp)
    50000552:	05a2                	slli	a1,a1,0x8
    50000554:	8ff9                	and	a5,a5,a4
    50000556:	8522                	mv	a0,s0
    50000558:	7402                	ld	s0,32(sp)
    5000055a:	70a2                	ld	ra,40(sp)
    5000055c:	8ddd                	or	a1,a1,a5
    5000055e:	c82e                	sw	a1,16(sp)
    50000560:	6145                	addi	sp,sp,48
    50000562:	be21                	j	5000007a <PUT32>

0000000050000564 <gpio_set_input>:
    50000564:	7179                	addi	sp,sp,-48
    50000566:	02051713          	slli	a4,a0,0x20
    5000056a:	200017b7          	lui	a5,0x20001
    5000056e:	f022                	sd	s0,32(sp)
    50000570:	8c478793          	addi	a5,a5,-1852 # 200008c4 <__stack_size+0x1ff008c4>
    50000574:	01e75413          	srli	s0,a4,0x1e
    50000578:	943e                	add	s0,s0,a5
    5000057a:	8522                	mv	a0,s0
    5000057c:	f406                	sd	ra,40(sp)
    5000057e:	b09ff0ef          	jal	50000086 <GET32>
    50000582:	77f9                	lui	a5,0xffffe
    50000584:	0005061b          	sext.w	a2,a0
    50000588:	0fe78793          	addi	a5,a5,254 # ffffffffffffe0fe <__stack_top__+0xffffffffafef90fe>
    5000058c:	6705                	lui	a4,0x1
    5000058e:	8ff1                	and	a5,a5,a2
    50000590:	b0170713          	addi	a4,a4,-1279 # b01 <__pt_size-0x4ff>
    50000594:	c832                	sw	a2,16(sp)
    50000596:	8fd9                	or	a5,a5,a4
    50000598:	00f11823          	sh	a5,16(sp)
    5000059c:	c62a                	sw	a0,12(sp)
    5000059e:	8522                	mv	a0,s0
    500005a0:	7402                	ld	s0,32(sp)
    500005a2:	45c2                	lw	a1,16(sp)
    500005a4:	70a2                	ld	ra,40(sp)
    500005a6:	6145                	addi	sp,sp,48
    500005a8:	bcc9                	j	5000007a <PUT32>

00000000500005aa <gpio_set_output>:
    500005aa:	7179                	addi	sp,sp,-48
    500005ac:	02051713          	slli	a4,a0,0x20
    500005b0:	200017b7          	lui	a5,0x20001
    500005b4:	f022                	sd	s0,32(sp)
    500005b6:	8c478793          	addi	a5,a5,-1852 # 200008c4 <__stack_size+0x1ff008c4>
    500005ba:	01e75413          	srli	s0,a4,0x1e
    500005be:	943e                	add	s0,s0,a5
    500005c0:	8522                	mv	a0,s0
    500005c2:	f406                	sd	ra,40(sp)
    500005c4:	ac3ff0ef          	jal	50000086 <GET32>
    500005c8:	3fffe7b7          	lui	a5,0x3fffe
    500005cc:	0bf78793          	addi	a5,a5,191 # 3fffe0bf <__stack_size+0x3fefe0bf>
    500005d0:	c62a                	sw	a0,12(sp)
    500005d2:	8fe9                	and	a5,a5,a0
    500005d4:	8522                	mv	a0,s0
    500005d6:	7402                	ld	s0,32(sp)
    500005d8:	70a2                	ld	ra,40(sp)
    500005da:	400015b7          	lui	a1,0x40001
    500005de:	b4058593          	addi	a1,a1,-1216 # 40000b40 <__stack_size+0x3ff00b40>
    500005e2:	8ddd                	or	a1,a1,a5
    500005e4:	6145                	addi	sp,sp,48
    500005e6:	bc51                	j	5000007a <PUT32>

00000000500005e8 <gpio_write>:
    500005e8:	7179                	addi	sp,sp,-48
    500005ea:	02051713          	slli	a4,a0,0x20
    500005ee:	200017b7          	lui	a5,0x20001
    500005f2:	f022                	sd	s0,32(sp)
    500005f4:	8c478793          	addi	a5,a5,-1852 # 200008c4 <__stack_size+0x1ff008c4>
    500005f8:	01e75413          	srli	s0,a4,0x1e
    500005fc:	943e                	add	s0,s0,a5
    500005fe:	8522                	mv	a0,s0
    50000600:	e02e                	sd	a1,0(sp)
    50000602:	f406                	sd	ra,40(sp)
    50000604:	a83ff0ef          	jal	50000086 <GET32>
    50000608:	6582                	ld	a1,0(sp)
    5000060a:	c62a                	sw	a0,12(sp)
    5000060c:	c82a                	sw	a0,16(sp)
    5000060e:	ed89                	bnez	a1,50000628 <gpio_write+0x40>
    50000610:	0005079b          	sext.w	a5,a0
    50000614:	04000737          	lui	a4,0x4000
    50000618:	8fd9                	or	a5,a5,a4
    5000061a:	c83e                	sw	a5,16(sp)
    5000061c:	8522                	mv	a0,s0
    5000061e:	7402                	ld	s0,32(sp)
    50000620:	45c2                	lw	a1,16(sp)
    50000622:	70a2                	ld	ra,40(sp)
    50000624:	6145                	addi	sp,sp,48
    50000626:	bc91                	j	5000007a <PUT32>
    50000628:	47c2                	lw	a5,16(sp)
    5000062a:	02000737          	lui	a4,0x2000
    5000062e:	8522                	mv	a0,s0
    50000630:	8fd9                	or	a5,a5,a4
    50000632:	c83e                	sw	a5,16(sp)
    50000634:	7402                	ld	s0,32(sp)
    50000636:	45c2                	lw	a1,16(sp)
    50000638:	70a2                	ld	ra,40(sp)
    5000063a:	6145                	addi	sp,sp,48
    5000063c:	bc3d                	j	5000007a <PUT32>

000000005000063e <gpio_read>:
    5000063e:	02051713          	slli	a4,a0,0x20
    50000642:	200017b7          	lui	a5,0x20001
    50000646:	01e75513          	srli	a0,a4,0x1e
    5000064a:	8c478793          	addi	a5,a5,-1852 # 200008c4 <__stack_size+0x1ff008c4>
    5000064e:	1141                	addi	sp,sp,-16
    50000650:	953e                	add	a0,a0,a5
    50000652:	e406                	sd	ra,8(sp)
    50000654:	a33ff0ef          	jal	50000086 <GET32>
    50000658:	60a2                	ld	ra,8(sp)
    5000065a:	8171                	srli	a0,a0,0x1c
    5000065c:	8905                	andi	a0,a0,1
    5000065e:	0141                	addi	sp,sp,16
    50000660:	8082                	ret

0000000050000662 <gpio_set_on>:
    50000662:	7179                	addi	sp,sp,-48
    50000664:	02051713          	slli	a4,a0,0x20
    50000668:	200017b7          	lui	a5,0x20001
    5000066c:	f022                	sd	s0,32(sp)
    5000066e:	8c478793          	addi	a5,a5,-1852 # 200008c4 <__stack_size+0x1ff008c4>
    50000672:	01e75413          	srli	s0,a4,0x1e
    50000676:	943e                	add	s0,s0,a5
    50000678:	8522                	mv	a0,s0
    5000067a:	f406                	sd	ra,40(sp)
    5000067c:	a0bff0ef          	jal	50000086 <GET32>
    50000680:	0005069b          	sext.w	a3,a0
    50000684:	0186d793          	srli	a5,a3,0x18
    50000688:	9be5                	andi	a5,a5,-7
    5000068a:	c836                	sw	a3,16(sp)
    5000068c:	0027e793          	ori	a5,a5,2
    50000690:	00f109a3          	sb	a5,19(sp)
    50000694:	c62a                	sw	a0,12(sp)
    50000696:	8522                	mv	a0,s0
    50000698:	7402                	ld	s0,32(sp)
    5000069a:	45c2                	lw	a1,16(sp)
    5000069c:	70a2                	ld	ra,40(sp)
    5000069e:	6145                	addi	sp,sp,48
    500006a0:	bae9                	j	5000007a <PUT32>

00000000500006a2 <gpio_set_off>:
    500006a2:	7179                	addi	sp,sp,-48
    500006a4:	02051713          	slli	a4,a0,0x20
    500006a8:	200017b7          	lui	a5,0x20001
    500006ac:	f022                	sd	s0,32(sp)
    500006ae:	8c478793          	addi	a5,a5,-1852 # 200008c4 <__stack_size+0x1ff008c4>
    500006b2:	01e75413          	srli	s0,a4,0x1e
    500006b6:	943e                	add	s0,s0,a5
    500006b8:	8522                	mv	a0,s0
    500006ba:	f406                	sd	ra,40(sp)
    500006bc:	9cbff0ef          	jal	50000086 <GET32>
    500006c0:	0005069b          	sext.w	a3,a0
    500006c4:	0186d793          	srli	a5,a3,0x18
    500006c8:	9be5                	andi	a5,a5,-7
    500006ca:	c836                	sw	a3,16(sp)
    500006cc:	0047e793          	ori	a5,a5,4
    500006d0:	00f109a3          	sb	a5,19(sp)
    500006d4:	c62a                	sw	a0,12(sp)
    500006d6:	8522                	mv	a0,s0
    500006d8:	7402                	ld	s0,32(sp)
    500006da:	45c2                	lw	a1,16(sp)
    500006dc:	70a2                	ld	ra,40(sp)
    500006de:	6145                	addi	sp,sp,48
    500006e0:	ba69                	j	5000007a <PUT32>

00000000500006e2 <memset>:
    500006e2:	16060763          	beqz	a2,50000850 <memset+0x16e>
    500006e6:	40a00733          	neg	a4,a0
    500006ea:	00777793          	andi	a5,a4,7
    500006ee:	00778693          	addi	a3,a5,7
    500006f2:	482d                	li	a6,11
    500006f4:	0ff5f593          	zext.b	a1,a1
    500006f8:	fff60893          	addi	a7,a2,-1
    500006fc:	1506eb63          	bltu	a3,a6,50000852 <memset+0x170>
    50000700:	16d8e163          	bltu	a7,a3,50000862 <memset+0x180>
    50000704:	14078d63          	beqz	a5,5000085e <memset+0x17c>
    50000708:	00b50023          	sb	a1,0(a0)
    5000070c:	00677693          	andi	a3,a4,6
    50000710:	14068563          	beqz	a3,5000085a <memset+0x178>
    50000714:	00b500a3          	sb	a1,1(a0)
    50000718:	4809                	li	a6,2
    5000071a:	02f87963          	bgeu	a6,a5,5000074c <memset+0x6a>
    5000071e:	00b50123          	sb	a1,2(a0)
    50000722:	8b11                	andi	a4,a4,4
    50000724:	12070963          	beqz	a4,50000856 <memset+0x174>
    50000728:	00b501a3          	sb	a1,3(a0)
    5000072c:	4811                	li	a6,4
    5000072e:	00f87f63          	bgeu	a6,a5,5000074c <memset+0x6a>
    50000732:	00b50223          	sb	a1,4(a0)
    50000736:	4715                	li	a4,5
    50000738:	12e78763          	beq	a5,a4,50000866 <memset+0x184>
    5000073c:	00b502a3          	sb	a1,5(a0)
    50000740:	471d                	li	a4,7
    50000742:	12e79463          	bne	a5,a4,5000086a <memset+0x188>
    50000746:	00b50323          	sb	a1,6(a0)
    5000074a:	883e                	mv	a6,a5
    5000074c:	00859713          	slli	a4,a1,0x8
    50000750:	01059693          	slli	a3,a1,0x10
    50000754:	8f4d                	or	a4,a4,a1
    50000756:	8f55                	or	a4,a4,a3
    50000758:	01859693          	slli	a3,a1,0x18
    5000075c:	8f55                	or	a4,a4,a3
    5000075e:	02059693          	slli	a3,a1,0x20
    50000762:	8f55                	or	a4,a4,a3
    50000764:	02859693          	slli	a3,a1,0x28
    50000768:	8f55                	or	a4,a4,a3
    5000076a:	40f60333          	sub	t1,a2,a5
    5000076e:	03059693          	slli	a3,a1,0x30
    50000772:	8f55                	or	a4,a4,a3
    50000774:	97aa                	add	a5,a5,a0
    50000776:	03859693          	slli	a3,a1,0x38
    5000077a:	ff837893          	andi	a7,t1,-8
    5000077e:	8f55                	or	a4,a4,a3
    50000780:	011786b3          	add	a3,a5,a7
    50000784:	e398                	sd	a4,0(a5)
    50000786:	07a1                	addi	a5,a5,8
    50000788:	fef69ee3          	bne	a3,a5,50000784 <memset+0xa2>
    5000078c:	0d130263          	beq	t1,a7,50000850 <memset+0x16e>
    50000790:	011807b3          	add	a5,a6,a7
    50000794:	00f50733          	add	a4,a0,a5
    50000798:	00b70023          	sb	a1,0(a4) # 2000000 <__stack_size+0x1f00000>
    5000079c:	00178713          	addi	a4,a5,1
    500007a0:	0ac77863          	bgeu	a4,a2,50000850 <memset+0x16e>
    500007a4:	972a                	add	a4,a4,a0
    500007a6:	00b70023          	sb	a1,0(a4)
    500007aa:	00278713          	addi	a4,a5,2
    500007ae:	0ac77163          	bgeu	a4,a2,50000850 <memset+0x16e>
    500007b2:	972a                	add	a4,a4,a0
    500007b4:	00b70023          	sb	a1,0(a4)
    500007b8:	00378713          	addi	a4,a5,3
    500007bc:	08c77a63          	bgeu	a4,a2,50000850 <memset+0x16e>
    500007c0:	972a                	add	a4,a4,a0
    500007c2:	00b70023          	sb	a1,0(a4)
    500007c6:	00478713          	addi	a4,a5,4
    500007ca:	08c77363          	bgeu	a4,a2,50000850 <memset+0x16e>
    500007ce:	972a                	add	a4,a4,a0
    500007d0:	00b70023          	sb	a1,0(a4)
    500007d4:	00578713          	addi	a4,a5,5
    500007d8:	06c77c63          	bgeu	a4,a2,50000850 <memset+0x16e>
    500007dc:	972a                	add	a4,a4,a0
    500007de:	00b70023          	sb	a1,0(a4)
    500007e2:	00678713          	addi	a4,a5,6
    500007e6:	06c77563          	bgeu	a4,a2,50000850 <memset+0x16e>
    500007ea:	972a                	add	a4,a4,a0
    500007ec:	00b70023          	sb	a1,0(a4)
    500007f0:	00778713          	addi	a4,a5,7
    500007f4:	04c77e63          	bgeu	a4,a2,50000850 <memset+0x16e>
    500007f8:	972a                	add	a4,a4,a0
    500007fa:	00b70023          	sb	a1,0(a4)
    500007fe:	00878713          	addi	a4,a5,8
    50000802:	04c77763          	bgeu	a4,a2,50000850 <memset+0x16e>
    50000806:	972a                	add	a4,a4,a0
    50000808:	00b70023          	sb	a1,0(a4)
    5000080c:	00978713          	addi	a4,a5,9
    50000810:	04c77063          	bgeu	a4,a2,50000850 <memset+0x16e>
    50000814:	972a                	add	a4,a4,a0
    50000816:	00b70023          	sb	a1,0(a4)
    5000081a:	00a78713          	addi	a4,a5,10
    5000081e:	02c77963          	bgeu	a4,a2,50000850 <memset+0x16e>
    50000822:	972a                	add	a4,a4,a0
    50000824:	00b70023          	sb	a1,0(a4)
    50000828:	00b78713          	addi	a4,a5,11
    5000082c:	02c77263          	bgeu	a4,a2,50000850 <memset+0x16e>
    50000830:	972a                	add	a4,a4,a0
    50000832:	00b70023          	sb	a1,0(a4)
    50000836:	00c78713          	addi	a4,a5,12
    5000083a:	00c77b63          	bgeu	a4,a2,50000850 <memset+0x16e>
    5000083e:	972a                	add	a4,a4,a0
    50000840:	00b70023          	sb	a1,0(a4)
    50000844:	07b5                	addi	a5,a5,13
    50000846:	00c7f563          	bgeu	a5,a2,50000850 <memset+0x16e>
    5000084a:	97aa                	add	a5,a5,a0
    5000084c:	00b78023          	sb	a1,0(a5)
    50000850:	8082                	ret
    50000852:	86c2                	mv	a3,a6
    50000854:	b575                	j	50000700 <memset+0x1e>
    50000856:	480d                	li	a6,3
    50000858:	bdd5                	j	5000074c <memset+0x6a>
    5000085a:	4805                	li	a6,1
    5000085c:	bdc5                	j	5000074c <memset+0x6a>
    5000085e:	4801                	li	a6,0
    50000860:	b5f5                	j	5000074c <memset+0x6a>
    50000862:	4781                	li	a5,0
    50000864:	bf05                	j	50000794 <memset+0xb2>
    50000866:	883e                	mv	a6,a5
    50000868:	b5d5                	j	5000074c <memset+0x6a>
    5000086a:	4819                	li	a6,6
    5000086c:	b5c5                	j	5000074c <memset+0x6a>

000000005000086e <memcpy>:
    5000086e:	ca69                	beqz	a2,50000940 <memcpy+0xd2>
    50000870:	fff60793          	addi	a5,a2,-1
    50000874:	471d                	li	a4,7
    50000876:	0af77c63          	bgeu	a4,a5,5000092e <memcpy+0xc0>
    5000087a:	00a5e7b3          	or	a5,a1,a0
    5000087e:	8ff9                	and	a5,a5,a4
    50000880:	e7dd                	bnez	a5,5000092e <memcpy+0xc0>
    50000882:	ff867893          	andi	a7,a2,-8
    50000886:	01158833          	add	a6,a1,a7
    5000088a:	87ae                	mv	a5,a1
    5000088c:	872a                	mv	a4,a0
    5000088e:	6394                	ld	a3,0(a5)
    50000890:	07a1                	addi	a5,a5,8
    50000892:	0721                	addi	a4,a4,8
    50000894:	fed73c23          	sd	a3,-8(a4)
    50000898:	fef81be3          	bne	a6,a5,5000088e <memcpy+0x20>
    5000089c:	0b160263          	beq	a2,a7,50000940 <memcpy+0xd2>
    500008a0:	00084683          	lbu	a3,0(a6)
    500008a4:	01150733          	add	a4,a0,a7
    500008a8:	00188793          	addi	a5,a7,1
    500008ac:	00d70023          	sb	a3,0(a4)
    500008b0:	08c7f863          	bgeu	a5,a2,50000940 <memcpy+0xd2>
    500008b4:	00f58733          	add	a4,a1,a5
    500008b8:	00074683          	lbu	a3,0(a4)
    500008bc:	97aa                	add	a5,a5,a0
    500008be:	00288713          	addi	a4,a7,2
    500008c2:	00d78023          	sb	a3,0(a5)
    500008c6:	06c77d63          	bgeu	a4,a2,50000940 <memcpy+0xd2>
    500008ca:	00e587b3          	add	a5,a1,a4
    500008ce:	0007c683          	lbu	a3,0(a5)
    500008d2:	972a                	add	a4,a4,a0
    500008d4:	00388793          	addi	a5,a7,3
    500008d8:	00d70023          	sb	a3,0(a4)
    500008dc:	06c7f263          	bgeu	a5,a2,50000940 <memcpy+0xd2>
    500008e0:	00f58733          	add	a4,a1,a5
    500008e4:	00074683          	lbu	a3,0(a4)
    500008e8:	97aa                	add	a5,a5,a0
    500008ea:	00488713          	addi	a4,a7,4
    500008ee:	00d78023          	sb	a3,0(a5)
    500008f2:	04c77763          	bgeu	a4,a2,50000940 <memcpy+0xd2>
    500008f6:	00e587b3          	add	a5,a1,a4
    500008fa:	0007c683          	lbu	a3,0(a5)
    500008fe:	972a                	add	a4,a4,a0
    50000900:	00588793          	addi	a5,a7,5
    50000904:	00d70023          	sb	a3,0(a4)
    50000908:	02c7fc63          	bgeu	a5,a2,50000940 <memcpy+0xd2>
    5000090c:	00f58733          	add	a4,a1,a5
    50000910:	00074703          	lbu	a4,0(a4)
    50000914:	97aa                	add	a5,a5,a0
    50000916:	0899                	addi	a7,a7,6
    50000918:	00e78023          	sb	a4,0(a5)
    5000091c:	02c8f263          	bgeu	a7,a2,50000940 <memcpy+0xd2>
    50000920:	95c6                	add	a1,a1,a7
    50000922:	0005c783          	lbu	a5,0(a1)
    50000926:	98aa                	add	a7,a7,a0
    50000928:	00f88023          	sb	a5,0(a7)
    5000092c:	8082                	ret
    5000092e:	962e                	add	a2,a2,a1
    50000930:	0005c783          	lbu	a5,0(a1)
    50000934:	0585                	addi	a1,a1,1
    50000936:	0505                	addi	a0,a0,1
    50000938:	fef50fa3          	sb	a5,-1(a0)
    5000093c:	fec59ae3          	bne	a1,a2,50000930 <memcpy+0xc2>
    50000940:	8082                	ret

0000000050000942 <timer_init>:
    50000942:	1101                	addi	sp,sp,-32
    50000944:	e04a                	sd	s2,0(sp)
    50000946:	892a                	mv	s2,a0
    50000948:	30000537          	lui	a0,0x30000
    5000094c:	0561                	addi	a0,a0,24 # 30000018 <__stack_size+0x2ff00018>
    5000094e:	ec06                	sd	ra,24(sp)
    50000950:	e822                	sd	s0,16(sp)
    50000952:	e426                	sd	s1,8(sp)
    50000954:	f32ff0ef          	jal	50000086 <GET32>
    50000958:	800004b7          	lui	s1,0x80000
    5000095c:	fff4c793          	not	a5,s1
    50000960:	00f575b3          	and	a1,a0,a5
    50000964:	1c9c4437          	lui	s0,0x1c9c4
    50000968:	30000537          	lui	a0,0x30000
    5000096c:	2581                	sext.w	a1,a1
    5000096e:	0561                	addi	a0,a0,24 # 30000018 <__stack_size+0x2ff00018>
    50000970:	8004041b          	addiw	s0,s0,-2048 # 1c9c3800 <__stack_size+0x1c8c3800>
    50000974:	f06ff0ef          	jal	5000007a <PUT32>
    50000978:	0324543b          	divuw	s0,s0,s2
    5000097c:	30000537          	lui	a0,0x30000
    50000980:	0561                	addi	a0,a0,24 # 30000018 <__stack_size+0x2ff00018>
    50000982:	f04ff0ef          	jal	50000086 <GET32>
    50000986:	8c29                	xor	s0,s0,a0
    50000988:	3ff47413          	andi	s0,s0,1023
    5000098c:	008545b3          	xor	a1,a0,s0
    50000990:	30000537          	lui	a0,0x30000
    50000994:	2581                	sext.w	a1,a1
    50000996:	0561                	addi	a0,a0,24 # 30000018 <__stack_size+0x2ff00018>
    50000998:	ee2ff0ef          	jal	5000007a <PUT32>
    5000099c:	30000537          	lui	a0,0x30000
    500009a0:	0561                	addi	a0,a0,24 # 30000018 <__stack_size+0x2ff00018>
    500009a2:	ee4ff0ef          	jal	50000086 <GET32>
    500009a6:	6442                	ld	s0,16(sp)
    500009a8:	009565b3          	or	a1,a0,s1
    500009ac:	60e2                	ld	ra,24(sp)
    500009ae:	64a2                	ld	s1,8(sp)
    500009b0:	6902                	ld	s2,0(sp)
    500009b2:	30000537          	lui	a0,0x30000
    500009b6:	2581                	sext.w	a1,a1
    500009b8:	0561                	addi	a0,a0,24 # 30000018 <__stack_size+0x2ff00018>
    500009ba:	6105                	addi	sp,sp,32
    500009bc:	ebeff06f          	j	5000007a <PUT32>

00000000500009c0 <timer_read>:
    500009c0:	c0102573          	rdtime	a0
    500009c4:	8082                	ret

00000000500009c6 <uart_can_getc>:
    500009c6:	1141                	addi	sp,sp,-16
    500009c8:	08450513          	addi	a0,a0,132
    500009cc:	e406                	sd	ra,8(sp)
    500009ce:	eb8ff0ef          	jal	50000086 <GET32>
    500009d2:	60a2                	ld	ra,8(sp)
    500009d4:	6791                	lui	a5,0x4
    500009d6:	f0078793          	addi	a5,a5,-256 # 3f00 <__pt_size+0x2f00>
    500009da:	8d7d                	and	a0,a0,a5
    500009dc:	00a03533          	snez	a0,a0
    500009e0:	0141                	addi	sp,sp,16
    500009e2:	8082                	ret

00000000500009e4 <uart_getc>:
    500009e4:	1101                	addi	sp,sp,-32
    500009e6:	e822                	sd	s0,16(sp)
    500009e8:	6411                	lui	s0,0x4
    500009ea:	e04a                	sd	s2,0(sp)
    500009ec:	ec06                	sd	ra,24(sp)
    500009ee:	892a                	mv	s2,a0
    500009f0:	f0040413          	addi	s0,s0,-256 # 3f00 <__pt_size+0x2f00>
    500009f4:	08490513          	addi	a0,s2,132
    500009f8:	e8eff0ef          	jal	50000086 <GET32>
    500009fc:	8d61                	and	a0,a0,s0
    500009fe:	d97d                	beqz	a0,500009f4 <uart_getc+0x10>
    50000a00:	08c90513          	addi	a0,s2,140
    50000a04:	e82ff0ef          	jal	50000086 <GET32>
    50000a08:	60e2                	ld	ra,24(sp)
    50000a0a:	6442                	ld	s0,16(sp)
    50000a0c:	6902                	ld	s2,0(sp)
    50000a0e:	0ff57513          	zext.b	a0,a0
    50000a12:	6105                	addi	sp,sp,32
    50000a14:	8082                	ret

0000000050000a16 <uart_can_putc>:
    50000a16:	1141                	addi	sp,sp,-16
    50000a18:	08450513          	addi	a0,a0,132
    50000a1c:	e406                	sd	ra,8(sp)
    50000a1e:	e68ff0ef          	jal	50000086 <GET32>
    50000a22:	60a2                	ld	ra,8(sp)
    50000a24:	03f57513          	andi	a0,a0,63
    50000a28:	00a03533          	snez	a0,a0
    50000a2c:	0141                	addi	sp,sp,16
    50000a2e:	8082                	ret

0000000050000a30 <uart_putc>:
    50000a30:	1101                	addi	sp,sp,-32
    50000a32:	e822                	sd	s0,16(sp)
    50000a34:	e426                	sd	s1,8(sp)
    50000a36:	e04a                	sd	s2,0(sp)
    50000a38:	ec06                	sd	ra,24(sp)
    50000a3a:	84aa                	mv	s1,a0
    50000a3c:	892e                	mv	s2,a1
    50000a3e:	08450413          	addi	s0,a0,132
    50000a42:	8522                	mv	a0,s0
    50000a44:	e42ff0ef          	jal	50000086 <GET32>
    50000a48:	03f57513          	andi	a0,a0,63
    50000a4c:	d97d                	beqz	a0,50000a42 <uart_putc+0x12>
    50000a4e:	6442                	ld	s0,16(sp)
    50000a50:	60e2                	ld	ra,24(sp)
    50000a52:	85ca                	mv	a1,s2
    50000a54:	08848513          	addi	a0,s1,136 # ffffffff80000088 <__stack_top__+0xffffffff2fefb088>
    50000a58:	6902                	ld	s2,0(sp)
    50000a5a:	64a2                	ld	s1,8(sp)
    50000a5c:	6105                	addi	sp,sp,32
    50000a5e:	e1cff06f          	j	5000007a <PUT32>

0000000050000a62 <uart_puts>:
    50000a62:	7179                	addi	sp,sp,-48
    50000a64:	f406                	sd	ra,40(sp)
    50000a66:	e84a                	sd	s2,16(sp)
    50000a68:	0005c903          	lbu	s2,0(a1)
    50000a6c:	02090c63          	beqz	s2,50000aa4 <uart_puts+0x42>
    50000a70:	f022                	sd	s0,32(sp)
    50000a72:	ec26                	sd	s1,24(sp)
    50000a74:	e44e                	sd	s3,8(sp)
    50000a76:	84ae                	mv	s1,a1
    50000a78:	08450413          	addi	s0,a0,132
    50000a7c:	08850993          	addi	s3,a0,136
    50000a80:	0485                	addi	s1,s1,1
    50000a82:	8522                	mv	a0,s0
    50000a84:	e02ff0ef          	jal	50000086 <GET32>
    50000a88:	03f57513          	andi	a0,a0,63
    50000a8c:	d97d                	beqz	a0,50000a82 <uart_puts+0x20>
    50000a8e:	85ca                	mv	a1,s2
    50000a90:	854e                	mv	a0,s3
    50000a92:	de8ff0ef          	jal	5000007a <PUT32>
    50000a96:	0004c903          	lbu	s2,0(s1)
    50000a9a:	fe0913e3          	bnez	s2,50000a80 <uart_puts+0x1e>
    50000a9e:	7402                	ld	s0,32(sp)
    50000aa0:	64e2                	ld	s1,24(sp)
    50000aa2:	69a2                	ld	s3,8(sp)
    50000aa4:	70a2                	ld	ra,40(sp)
    50000aa6:	6942                	ld	s2,16(sp)
    50000aa8:	6145                	addi	sp,sp,48
    50000aaa:	8082                	ret

0000000050000aac <uart_puthex64>:
    50000aac:	7179                	addi	sp,sp,-48
    50000aae:	f022                	sd	s0,32(sp)
    50000ab0:	e84a                	sd	s2,16(sp)
    50000ab2:	e44e                	sd	s3,8(sp)
    50000ab4:	e052                	sd	s4,0(sp)
    50000ab6:	f406                	sd	ra,40(sp)
    50000ab8:	ec26                	sd	s1,24(sp)
    50000aba:	8a2a                	mv	s4,a0
    50000abc:	03c00413          	li	s0,60
    50000ac0:	49a5                	li	s3,9
    50000ac2:	5971                	li	s2,-4
    50000ac4:	008a57b3          	srl	a5,s4,s0
    50000ac8:	8bbd                	andi	a5,a5,15
    50000aca:	05778493          	addi	s1,a5,87
    50000ace:	00f9e463          	bltu	s3,a5,50000ad6 <uart_puthex64+0x2a>
    50000ad2:	03078493          	addi	s1,a5,48
    50000ad6:	2000a537          	lui	a0,0x2000a
    50000ada:	08450513          	addi	a0,a0,132 # 2000a084 <__stack_size+0x1ff0a084>
    50000ade:	da8ff0ef          	jal	50000086 <GET32>
    50000ae2:	03f57513          	andi	a0,a0,63
    50000ae6:	d965                	beqz	a0,50000ad6 <uart_puthex64+0x2a>
    50000ae8:	2000a537          	lui	a0,0x2000a
    50000aec:	85a6                	mv	a1,s1
    50000aee:	08850513          	addi	a0,a0,136 # 2000a088 <__stack_size+0x1ff0a088>
    50000af2:	3471                	addiw	s0,s0,-4
    50000af4:	d86ff0ef          	jal	5000007a <PUT32>
    50000af8:	fd2416e3          	bne	s0,s2,50000ac4 <uart_puthex64+0x18>
    50000afc:	70a2                	ld	ra,40(sp)
    50000afe:	7402                	ld	s0,32(sp)
    50000b00:	64e2                	ld	s1,24(sp)
    50000b02:	6942                	ld	s2,16(sp)
    50000b04:	69a2                	ld	s3,8(sp)
    50000b06:	6a02                	ld	s4,0(sp)
    50000b08:	6145                	addi	sp,sp,48
    50000b0a:	8082                	ret

0000000050000b0c <uart_init>:
    50000b0c:	1101                	addi	sp,sp,-32
    50000b0e:	e426                	sd	s1,8(sp)
    50000b10:	84ae                	mv	s1,a1
    50000b12:	6585                	lui	a1,0x1
    50000b14:	70558593          	addi	a1,a1,1797 # 1705 <__pt_size+0x705>
    50000b18:	ec06                	sd	ra,24(sp)
    50000b1a:	e822                	sd	s0,16(sp)
    50000b1c:	842a                	mv	s0,a0
    50000b1e:	d5cff0ef          	jal	5000007a <PUT32>
    50000b22:	00440513          	addi	a0,s0,4
    50000b26:	70100593          	li	a1,1793
    50000b2a:	d50ff0ef          	jal	5000007a <PUT32>
    50000b2e:	04c4b7b7          	lui	a5,0x4c4b
    50000b32:	4007879b          	addiw	a5,a5,1024 # 4c4b400 <__stack_size+0x4b4b400>
    50000b36:	0297d7bb          	divuw	a5,a5,s1
    50000b3a:	00840513          	addi	a0,s0,8
    50000b3e:	6442                	ld	s0,16(sp)
    50000b40:	60e2                	ld	ra,24(sp)
    50000b42:	64a2                	ld	s1,8(sp)
    50000b44:	6105                	addi	sp,sp,32
    50000b46:	37fd                	addiw	a5,a5,-1
    50000b48:	0107959b          	slliw	a1,a5,0x10
    50000b4c:	8ddd                	or	a1,a1,a5
    50000b4e:	d2cff06f          	j	5000007a <PUT32>

0000000050000b52 <uartmux_signal_number>:
    50000b52:	2aaab7b7          	lui	a5,0x2aaab
    50000b56:	aab78793          	addi	a5,a5,-1365 # 2aaaaaab <__stack_size+0x2a9aaaab>
    50000b5a:	02f507b3          	mul	a5,a0,a5
    50000b5e:	41f5571b          	sraiw	a4,a0,0x1f
    50000b62:	9785                	srai	a5,a5,0x21
    50000b64:	9f99                	subw	a5,a5,a4
    50000b66:	0017971b          	slliw	a4,a5,0x1
    50000b6a:	9fb9                	addw	a5,a5,a4
    50000b6c:	0027979b          	slliw	a5,a5,0x2
    50000b70:	9d1d                	subw	a0,a0,a5
    50000b72:	8082                	ret

0000000050000b74 <uartmux_configure>:
    50000b74:	1101                	addi	sp,sp,-32
    50000b76:	e04a                	sd	s2,0(sp)
    50000b78:	200007b7          	lui	a5,0x20000
    50000b7c:	00355913          	srli	s2,a0,0x3
    50000b80:	15478793          	addi	a5,a5,340 # 20000154 <__stack_size+0x1ff00154>
    50000b84:	090a                	slli	s2,s2,0x2
    50000b86:	993e                	add	s2,s2,a5
    50000b88:	e822                	sd	s0,16(sp)
    50000b8a:	e426                	sd	s1,8(sp)
    50000b8c:	0025941b          	slliw	s0,a1,0x2
    50000b90:	00757493          	andi	s1,a0,7
    50000b94:	854a                	mv	a0,s2
    50000b96:	ec06                	sd	ra,24(sp)
    50000b98:	9c31                	addw	s0,s0,a2
    50000b9a:	cecff0ef          	jal	50000086 <GET32>
    50000b9e:	048a                	slli	s1,s1,0x2
    50000ba0:	47bd                	li	a5,15
    50000ba2:	009797bb          	sllw	a5,a5,s1
    50000ba6:	00f47593          	andi	a1,s0,15
    50000baa:	fff7c793          	not	a5,a5
    50000bae:	6442                	ld	s0,16(sp)
    50000bb0:	60e2                	ld	ra,24(sp)
    50000bb2:	009595bb          	sllw	a1,a1,s1
    50000bb6:	8fe9                	and	a5,a5,a0
    50000bb8:	64a2                	ld	s1,8(sp)
    50000bba:	854a                	mv	a0,s2
    50000bbc:	6902                	ld	s2,0(sp)
    50000bbe:	8ddd                	or	a1,a1,a5
    50000bc0:	2581                	sext.w	a1,a1
    50000bc2:	6105                	addi	sp,sp,32
    50000bc4:	cb6ff06f          	j	5000007a <PUT32>

Disassembly of section .rodata:

0000000050000bc8 <_krodata_start>:
    50000bc8:	6e69                	lui	t3,0x1a
    50000bca:	7420                	ld	s0,104(s0)
    50000bcc:	6172                	ld	sp,280(sp)
    50000bce:	2170                	.insn	2, 0x2170
    50000bd0:	0a0d                	addi	s4,s4,3
    50000bd2:	0000                	unimp
    50000bd4:	0000                	unimp
    50000bd6:	0000                	unimp
    50000bd8:	6e69                	lui	t3,0x1a
    50000bda:	7420                	ld	s0,104(s0)
    50000bdc:	6172                	ld	sp,280(sp)
    50000bde:	2170                	.insn	2, 0x2170
    50000be0:	0a21                	addi	s4,s4,8
    50000be2:	0000                	unimp
    50000be4:	0000                	unimp
    50000be6:	0000                	unimp
    50000be8:	736d                	lui	t1,0xffffb
    50000bea:	6174                	ld	a3,192(a0)
    50000bec:	7574                	ld	a3,232(a0)
    50000bee:	00203a73          	csrrc	s4,frm,zero
    50000bf2:	0000                	unimp
    50000bf4:	0000                	unimp
    50000bf6:	0000                	unimp
    50000bf8:	656d                	lui	a0,0x1b
    50000bfa:	6370                	ld	a2,192(a4)
    50000bfc:	203a                	.insn	2, 0x203a
    50000bfe:	2020                	.insn	2, 0x2020
    50000c00:	0020                	addi	s0,sp,8
    50000c02:	0000                	unimp
    50000c04:	0000                	unimp
    50000c06:	0000                	unimp
    50000c08:	746d                	lui	s0,0xffffb
    50000c0a:	6576                	ld	a0,344(sp)
    50000c0c:	20203a63          	.insn	4, 0x20203a63
    50000c10:	2020                	.insn	2, 0x2020
    50000c12:	0000                	unimp
    50000c14:	0000                	unimp
    50000c16:	0000                	unimp
    50000c18:	636d                	lui	t1,0x1b
    50000c1a:	7561                	lui	a0,0xffff8
    50000c1c:	203a6573          	csrrsi	a0,0x203,20
    50000c20:	0020                	addi	s0,sp,8
    50000c22:	0000                	unimp
    50000c24:	0000                	unimp
    50000c26:	0000                	unimp
    50000c28:	746d                	lui	s0,0xffffb
    50000c2a:	6176                	ld	sp,344(sp)
    50000c2c:	3a6c                	.insn	2, 0x3a6c
    50000c2e:	2020                	.insn	2, 0x2020
    50000c30:	0020                	addi	s0,sp,8
    50000c32:	0000                	unimp
    50000c34:	0000                	unimp
    50000c36:	0000                	unimp
    50000c38:	696d                	lui	s2,0x1b
    50000c3a:	3a65                	addiw	s4,s4,-7
    50000c3c:	2020                	.insn	2, 0x2020
    50000c3e:	0020                	addi	s0,sp,8
    50000c40:	696d                	lui	s2,0x1b
    50000c42:	3a70                	.insn	2, 0x3a70
    50000c44:	2020                	.insn	2, 0x2020
    50000c46:	0020                	addi	s0,sp,8
    50000c48:	70746173          	csrrsi	sp,0x707,8
    50000c4c:	203a                	.insn	2, 0x203a
    50000c4e:	2020                	.insn	2, 0x2020
	...
    50000c58:	6568                	ld	a0,200(a0)
    50000c5a:	6c6c                	ld	a1,216(s0)
    50000c5c:	6d202c6f          	jal	s8,5000332e <__global_pointer$+0x1a9e>
    50000c60:	6961                	lui	s2,0x18
    50000c62:	216e                	.insn	2, 0x216e
    50000c64:	0a0d                	addi	s4,s4,3
    50000c66:	0000                	unimp
    50000c68:	6568                	ld	a0,200(a0)
    50000c6a:	6c6c                	ld	a1,216(s0)
    50000c6c:	77202c6f          	jal	s8,500033de <__global_pointer$+0x1b4e>
    50000c70:	646c726f          	jal	tp,500c82b6 <__stack_bottom__+0xc32b6>
    50000c74:	0d21                	addi	s10,s10,8
    50000c76:	000a                	c.slli	zero,0x2

0000000050000c78 <crc32_tab>:
    50000c78:	0000                	unimp
    50000c7a:	0000                	unimp
    50000c7c:	3096                	.insn	2, 0x3096
    50000c7e:	612c7707          	.insn	4, 0x612c7707
    50000c82:	ee0e                	sd	gp,280(sp)
    50000c84:	51ba                	lw	gp,172(sp)
    50000c86:	9909                	andi	a0,a0,-30
    50000c88:	c419                	beqz	s0,50000c96 <crc32_tab+0x1e>
    50000c8a:	076d                	addi	a4,a4,27
    50000c8c:	706af48f          	.insn	4, 0x706af48f
    50000c90:	a535                	j	500012bc <_krodata_end+0x22c>
    50000c92:	95a3e963          	bltu	t2,s10,4ffffde4 <__stack_size+0x4feffde4>
    50000c96:	9e64                	.insn	2, 0x9e64
    50000c98:	8832                	mv	a6,a2
    50000c9a:	b8a40edb          	.insn	4, 0xb8a40edb
    50000c9e:	79dc                	ld	a5,176(a1)
    50000ca0:	e91e                	sd	t2,144(sp)
    50000ca2:	e0d5                	bnez	s1,50000d46 <crc32_tab+0xce>
    50000ca4:	d988                	sw	a0,48(a1)
    50000ca6:	97d2                	add	a5,a5,s4
    50000ca8:	09b64c2b          	.insn	4, 0x09b64c2b
    50000cac:	7cbd                	lui	s9,0xfffef
    50000cae:	7eb1                	lui	t4,0xfffec
    50000cb0:	e7b82d07          	flw	fs10,-389(a6)
    50000cb4:	1d91                	addi	s11,s11,-28
    50000cb6:	106490bf 20f21db7 	.insn	8, 0x20f21db7106490bf
    50000cbe:	6ab0                	ld	a2,80(a3)
    50000cc0:	7148                	ld	a0,160(a0)
    50000cc2:	f3b9                	bnez	a5,50000c08 <_krodata_start+0x40>
    50000cc4:	41de                	lw	gp,212(sp)
    50000cc6:	84be                	mv	s1,a5
    50000cc8:	d47d                	beqz	s0,50000cb6 <crc32_tab+0x3e>
    50000cca:	1ada                	slli	s5,s5,0x36
    50000ccc:	6ddde4eb          	.insn	4, 0x6ddde4eb
    50000cd0:	b551                	j	50000b54 <uartmux_signal_number+0x2>
    50000cd2:	f4d4                	sd	a3,168(s1)
    50000cd4:	83d385c7          	.insn	4, 0x83d385c7
    50000cd8:	9856                	add	a6,a6,s5
    50000cda:	136c                	addi	a1,sp,428
    50000cdc:	a8c0                	.insn	2, 0xa8c0
    50000cde:	f97a646b          	.insn	4, 0xf97a646b
    50000ce2:	fd62                	sd	s8,184(sp)
    50000ce4:	c9ec                	sw	a1,84(a1)
    50000ce6:	8a65                	andi	a2,a2,25
    50000ce8:	14015c4f          	.insn	4, 0x14015c4f
    50000cec:	6cd9                	lui	s9,0x16
    50000cee:	6306                	ld	t1,64(sp)
    50000cf0:	fa0f3d63          	.insn	4, 0xfa0f3d63
    50000cf4:	0df5                	addi	s11,s11,29
    50000cf6:	8d08                	.insn	2, 0x8d08
    50000cf8:	20c8                	.insn	2, 0x20c8
    50000cfa:	3b6e                	.insn	2, 0x3b6e
    50000cfc:	105e                	c.slli	zero,0x37
    50000cfe:	4c69                	li	s8,26
    50000d00:	41e4                	lw	s1,68(a1)
    50000d02:	d560                	sw	s0,108(a0)
    50000d04:	7172                	ld	sp,312(sp)
    50000d06:	e4d1a267          	.insn	4, 0xe4d1a267
    50000d0a:	d4473c03          	ld	s8,-700(a4)
    50000d0e:	4b04                	lw	s1,16(a4)
    50000d10:	85fd                	srai	a1,a1,0x1f
    50000d12:	d20d                	beqz	a2,50000c34 <_krodata_start+0x6c>
    50000d14:	a50ab56b          	.insn	4, 0xa50ab56b
    50000d18:	a8fa                	.insn	2, 0xa8fa
    50000d1a:	35b5                	addiw	a1,a1,-19
    50000d1c:	986c                	.insn	2, 0x986c
    50000d1e:	42b2                	lw	t0,12(sp)
    50000d20:	c9d6                	sw	s5,208(sp)
    50000d22:	f940dbbb          	.insn	4, 0xf940dbbb
    50000d26:	acbc                	.insn	2, 0xacbc
    50000d28:	32d86ce3          	bltu	a6,a3,50001860 <_krodata_end+0x7d0>
    50000d2c:	5c75                	li	s8,-3
    50000d2e:	45df 0dcf dcd6      	.insn	6, 0xdcd60dcf45df
    50000d34:	3d59                	addiw	s10,s10,-10
    50000d36:	abd1                	j	5000130a <_krodata_end+0x27a>
    50000d38:	30ac                	.insn	2, 0x30ac
    50000d3a:	26d9                	addiw	a3,a3,22
    50000d3c:	003a                	c.slli	zero,0xe
    50000d3e:	51de                	lw	gp,244(sp)
    50000d40:	5180                	lw	s0,32(a1)
    50000d42:	6116c8d7          	.insn	4, 0x6116c8d7
    50000d46:	bfd0                	.insn	2, 0xbfd0
    50000d48:	f4b5                	bnez	s1,50000cb4 <crc32_tab+0x3c>
    50000d4a:	21b4                	.insn	2, 0x21b4
    50000d4c:	56b3c423          	.insn	4, 0x56b3c423
    50000d50:	9599                	srai	a1,a1,0x26
    50000d52:	cfba                	sw	a4,220(sp)
    50000d54:	b8bda50f          	.insn	4, 0xb8bda50f
    50000d58:	b89e                	.insn	2, 0xb89e
    50000d5a:	2802                	.insn	2, 0x2802
    50000d5c:	8808                	.insn	2, 0x8808
    50000d5e:	5f05                	li	t5,-31
    50000d60:	d9b2                	sw	a2,240(sp)
    50000d62:	c60c                	sw	a1,8(a2)
    50000d64:	e924                	sd	s1,80(a0)
    50000d66:	7c87b10b          	.insn	4, 0x7c87b10b
    50000d6a:	4c112f6f          	jal	t5,50013a2a <__stack_bottom__+0xea2a>
    50000d6e:	5868                	lw	a0,116(s0)
    50000d70:	c1611dab          	.insn	4, 0xc1611dab
    50000d74:	2d3d                	addiw	s10,s10,15
    50000d76:	b666                	.insn	2, 0xb666
    50000d78:	4190                	lw	a2,0(a1)
    50000d7a:	76dc                	ld	a5,168(a3)
    50000d7c:	7106                	ld	sp,96(sp)
    50000d7e:	20bc01db          	.insn	4, 0x20bc01db
    50000d82:	98d2                	add	a7,a7,s4
    50000d84:	102a                	c.slli	zero,0x2a
    50000d86:	efd5                	bnez	a5,50000e42 <crc32_tab+0x1ca>
    50000d88:	8589                	srai	a1,a1,0x2
    50000d8a:	71b1                	lui	gp,0xfffec
    50000d8c:	b51f 06b6 e4a5      	.insn	6, 0xe4a506b6b51f
    50000d92:	d4339fbf c9a2e8b8 	.insn	8, 0xc9a2e8b8d4339fbf
    50000d9a:	f9347807          	.insn	4, 0xf9347807
    50000d9e:	0f00                	addi	s0,sp,912
    50000da0:	a88e                	.insn	2, 0xa88e
    50000da2:	9609                	srai	a2,a2,0x22
    50000da4:	9818                	.insn	2, 0x9818
    50000da6:	e10e                	sd	gp,128(sp)
    50000da8:	7f6a0dbb          	.insn	4, 0x7f6a0dbb
    50000dac:	3d2d                	addiw	s10,s10,-21
    50000dae:	086d                	addi	a6,a6,27
    50000db0:	91646c97          	auipc	s9,0x91646
    50000db4:	5c01                	li	s8,-32
    50000db6:	51f4e663          	bltu	s1,t6,500012c2 <_krodata_end+0x232>
    50000dba:	61626b6b          	.insn	4, 0x61626b6b
    50000dbe:	1c6c                	addi	a1,sp,572
    50000dc0:	30d8                	.insn	2, 0x30d8
    50000dc2:	8565                	srai	a0,a0,0x19
    50000dc4:	004e                	c.slli	zero,0x13
    50000dc6:	f262                	sd	s8,288(sp)
    50000dc8:	95ed                	srai	a1,a1,0x3b
    50000dca:	6c06                	ld	s8,64(sp)
    50000dcc:	1b01a57b          	.insn	4, 0x1b01a57b
    50000dd0:	f4c1                	bnez	s1,50000d58 <crc32_tab+0xe0>
    50000dd2:	8208                	.insn	2, 0x8208
    50000dd4:	f50fc457          	.insn	4, 0xf50fc457
    50000dd8:	d9c6                	sw	a7,240(sp)
    50000dda:	65b0                	ld	a2,72(a1)
    50000ddc:	e950                	sd	a2,144(a0)
    50000dde:	b8ea12b7          	lui	t0,0xb8ea1
    50000de2:	8bbe                	mv	s7,a5
    50000de4:	887c                	.insn	2, 0x887c
    50000de6:	fcb9                	bnez	s1,50000d44 <crc32_tab+0xcc>
    50000de8:	1ddf 62dd 2d49      	.insn	6, 0x2d4962dd1ddf
    50000dee:	15da                	slli	a1,a1,0x36
    50000df0:	8cd37cf3          	csrrci	s9,0x8cd,6
    50000df4:	4c65                	li	s8,25
    50000df6:	fbd4                	sd	a3,176(a5)
    50000df8:	6158                	ld	a4,128(a0)
    50000dfa:	4db2                	lw	s11,12(sp)
    50000dfc:	51ce                	lw	gp,240(sp)
    50000dfe:	3ab5                	addiw	s5,s5,-19
    50000e00:	0074                	addi	a3,sp,12
    50000e02:	a3bc                	.insn	2, 0xa3bc
    50000e04:	30e2                	.insn	2, 0x30e2
    50000e06:	a541d4bb          	.insn	4, 0xa541d4bb
    50000e0a:	4adf 95d7 3dd8      	.insn	6, 0x3dd895d74adf
    50000e10:	c46d                	beqz	s0,50000efa <crc32_tab+0x282>
    50000e12:	a4d1                	j	500010d6 <_krodata_end+0x46>
    50000e14:	d3d6f4fb          	.insn	4, 0xd3d6f4fb
    50000e18:	e96a                	sd	s10,144(sp)
    50000e1a:	4369                	li	t1,26
    50000e1c:	d9fc                	sw	a5,116(a1)
    50000e1e:	346e                	.insn	2, 0x346e
    50000e20:	8846                	mv	a6,a7
    50000e22:	b8d0ad67          	.insn	4, 0xb8d0ad67
    50000e26:	da60                	sw	s0,116(a2)
    50000e28:	44042d73          	csrrs	s10,0x440,s0
    50000e2c:	1de5                	addi	s11,s11,-7
    50000e2e:	4c5f3303          	ld	t1,1221(t5)
    50000e32:	aa0a                	.insn	2, 0xaa0a
    50000e34:	7cc9                	lui	s9,0xffff2
    50000e36:	dd0d                	beqz	a0,50000d70 <crc32_tab+0xf8>
    50000e38:	713c                	ld	a5,96(a0)
    50000e3a:	5005                	c.li	zero,-31
    50000e3c:	41aa                	lw	gp,136(sp)
    50000e3e:	2702                	.insn	2, 0x2702
    50000e40:	1010                	addi	a2,sp,32
    50000e42:	2086be0b          	.insn	4, 0x2086be0b
    50000e46:	c90c                	sw	a1,16(a0)
    50000e48:	b525                	j	50000c70 <_krodata_start+0xa8>
    50000e4a:	5768                	lw	a0,108(a4)
    50000e4c:	206f85b3          	.insn	4, 0x206f85b3
    50000e50:	d409                	beqz	s0,50000d5a <crc32_tab+0xe2>
    50000e52:	b966                	.insn	2, 0xb966
    50000e54:	e49f ce61 f90e      	.insn	6, 0xf90ece61e49f
    50000e5a:	5ede                	lw	t4,244(sp)
    50000e5c:	c998                	sw	a4,16(a1)
    50000e5e:	29d9                	addiw	s3,s3,22
    50000e60:	9822                	add	a6,a6,s0
    50000e62:	b0d0                	.insn	2, 0xb0d0
    50000e64:	a8b4                	.insn	2, 0xa8b4
    50000e66:	3d17c7d7          	.insn	4, 0x3d17c7d7
    50000e6a:	0d8159b3          	.insn	4, 0x0d8159b3
    50000e6e:	2eb4                	.insn	2, 0x2eb4
    50000e70:	b7bd5c3b          	.insn	4, 0xb7bd5c3b
    50000e74:	6cad                	lui	s9,0xb
    50000e76:	c0ba                	sw	a4,64(sp)
    50000e78:	8320                	.insn	2, 0x8320
    50000e7a:	edb8                	sd	a4,88(a1)
    50000e7c:	b3b6                	.insn	2, 0xb3b6
    50000e7e:	e20c9abf d29a03b6 	.insn	8, 0xd29a03b6e20c9abf
    50000e86:	74b1                	lui	s1,0xfffec
    50000e88:	4739                	li	a4,14
    50000e8a:	ead5                	bnez	a3,50000f3e <crc32_tab+0x2c6>
    50000e8c:	9dd277af          	.insn	4, 0x9dd277af
    50000e90:	2615                	addiw	a2,a2,5
    50000e92:	168304db          	.insn	4, 0x168304db
    50000e96:	73dc                	ld	a5,160(a5)
    50000e98:	0b12                	slli	s6,s6,0x4
    50000e9a:	3b84e363          	bltu	s1,s8,50001240 <_krodata_end+0x1b0>
    50000e9e:	9464                	.insn	2, 0x9464
    50000ea0:	6a3e                	ld	s4,456(sp)
    50000ea2:	0d6d                	addi	s10,s10,27
    50000ea4:	5aa8                	lw	a0,112(a3)
    50000ea6:	7a6a                	ld	s4,184(sp)
    50000ea8:	e40ecf0b          	.insn	4, 0xe40ecf0b
    50000eac:	ff9d                	bnez	a5,50000dea <crc32_tab+0x172>
    50000eae:	9309                	srli	a4,a4,0x22
    50000eb0:	0a00ae27          	fsw	ft0,188(ra)
    50000eb4:	9eb1                	addw	a3,a3,a2
    50000eb6:	93447d07          	.insn	4, 0x93447d07
    50000eba:	a3d2f00f          	.insn	4, 0xa3d2f00f
    50000ebe:	8708                	.insn	2, 0x8708
    50000ec0:	f268                	sd	a0,224(a2)
    50000ec2:	1e01                	addi	t3,t3,-32 # 19fe0 <__pt_size+0x18fe0>
    50000ec4:	c2fe                	sw	t6,68(sp)
    50000ec6:	6906                	ld	s2,64(sp)
    50000ec8:	575d                	li	a4,-9
    50000eca:	f762                	sd	s8,424(sp)
    50000ecc:	806567cb          	fnmsub.s	fa5,fa0,ft6,fa6,unknown
    50000ed0:	3671                	addiw	a2,a2,-4
    50000ed2:	196c                	addi	a1,sp,188
    50000ed4:	6e6b06e7          	jalr	a3,1766(s6)
    50000ed8:	1b76                	slli	s6,s6,0x3d
    50000eda:	fed4                	sd	a3,184(a3)
    50000edc:	2be0                	.insn	2, 0x2be0
    50000ede:	7a5a89d3          	.insn	4, 0x7a5a89d3
    50000ee2:	10da                	slli	ra,ra,0x36
    50000ee4:	4acc                	lw	a1,20(a3)
    50000ee6:	67dd                	lui	a5,0x17
    50000ee8:	f9b9df6f          	jal	t5,4ff9ee82 <__stack_size+0x4fe9ee82>
    50000eec:	eff9                	bnez	a5,50000fca <crc32_tab+0x352>
    50000eee:	8ebe                	mv	t4,a5
    50000ef0:	17b7be43          	.insn	4, 0x17b7be43
    50000ef4:	8ed5                	or	a3,a3,a3
    50000ef6:	60b0                	ld	a2,64(s1)
    50000ef8:	a3e8                	.insn	2, 0xa3e8
    50000efa:	d6d6                	sw	s5,108(sp)
    50000efc:	937e                	add	t1,t1,t6
    50000efe:	a1d1                	j	500013c2 <_krodata_end+0x332>
    50000f00:	c2c4                	sw	s1,4(a3)
    50000f02:	38d8                	.insn	2, 0x38d8
    50000f04:	f252                	sd	s4,288(sp)
    50000f06:	4fdf 67f1 d1bb      	.insn	6, 0xd1bb67f14fdf
    50000f0c:	a6bc5767          	.insn	4, 0xa6bc5767
    50000f10:	06dd                	addi	a3,a3,23
    50000f12:	3fb5                	addiw	t6,t6,-19
    50000f14:	48b2364b          	fnmsub.s	fa2,ft4,fa1,fs1,rup
    50000f18:	2bda                	.insn	2, 0x2bda
    50000f1a:	d80d                	beqz	s0,50000e4c <crc32_tab+0x1d4>
    50000f1c:	1b4c                	addi	a1,sp,436
    50000f1e:	af0a                	.insn	2, 0xaf0a
    50000f20:	4af6                	lw	s5,92(sp)
    50000f22:	7a603603          	ld	a2,1958(zero) # 7a6 <__pt_size-0x85a>
    50000f26:	4104                	lw	s1,0(a0)
    50000f28:	df60efc3          	.insn	4, 0xdf60efc3
    50000f2c:	df55                	beqz	a4,50000ee8 <crc32_tab+0x270>
    50000f2e:	8eefa867          	.insn	4, 0x8eefa867
    50000f32:	316e                	.insn	2, 0x316e
    50000f34:	be79                	j	50000ad2 <uart_puthex64+0x26>
    50000f36:	4669                	li	a2,26
    50000f38:	b38c                	.insn	2, 0xb38c
    50000f3a:	cb61                	beqz	a4,5000100a <crc32_tab+0x392>
    50000f3c:	831a                	mv	t1,t1
    50000f3e:	bc66                	.insn	2, 0xbc66
    50000f40:	d2a0                	sw	s0,96(a3)
    50000f42:	e236256f          	jal	a0,4ff63d64 <__stack_size+0x4fe63d64>
    50000f46:	5268                	lw	a0,100(a2)
    50000f48:	7795                	lui	a5,0xfffe5
    50000f4a:	cc0c                	sw	a1,24(s0)
    50000f4c:	bb0b4703          	lbu	a4,-1104(s6)
    50000f50:	16b9                	addi	a3,a3,-18
    50000f52:	2202                	.insn	2, 0x2202
    50000f54:	5505262f          	.insn	4, 0x5505262f
    50000f58:	3bbe                	.insn	2, 0x3bbe
    50000f5a:	c5ba                	sw	a4,200(sp)
    50000f5c:	0b28                	addi	a0,sp,408
    50000f5e:	b2bd                	j	500008cc <memcpy+0x5e>
    50000f60:	5a92                	lw	s5,36(sp)
    50000f62:	2bb4                	.insn	2, 0x2bb4
    50000f64:	6a04                	ld	s1,16(a2)
    50000f66:	ffa75cb3          	.insn	4, 0xffa75cb3
    50000f6a:	cf31c2d7          	.insn	4, 0xcf31c2d7
    50000f6e:	b5d0                	.insn	2, 0xb5d0
    50000f70:	2cd99e8b          	.insn	4, 0x2cd99e8b
    50000f74:	ae1d                	j	500012aa <_krodata_end+0x21a>
    50000f76:	5bde                	lw	s7,244(sp)
    50000f78:	c2b0                	sw	a2,64(a3)
    50000f7a:	9b64                	.insn	2, 0x9b64
    50000f7c:	f226                	sd	s1,288(sp)
    50000f7e:	a39cec63          	bltu	s9,s9,500001b6 <dump_csrs+0xc4>
    50000f82:	756a                	ld	a0,184(sp)
    50000f84:	930a                	add	t1,t1,sp
    50000f86:	026d                	addi	tp,tp,27 # 1b <__pt_size-0xfe5>
    50000f88:	06a9                	addi	a3,a3,10
    50000f8a:	9c09                	subw	s0,s0,a0
    50000f8c:	eb0e363f 72076785 	.insn	8, 0x72076785eb0e363f
    50000f94:	05005713          	.insn	4, 0x05005713
    50000f98:	4a82                	lw	s5,0(sp)
    50000f9a:	7a1495bf 2baee2b8 	.insn	8, 0x2baee2b87a1495bf
    50000fa2:	7bb1                	lui	s7,0xfffec
    50000fa4:	1b38                	addi	a4,sp,440
    50000fa6:	0cb6                	slli	s9,s9,0xd
    50000fa8:	92d28e9b          	addiw	t4,t0,-1747 # ffffffffb8ea092d <__stack_top__+0xffffffff68d9b92d>
    50000fac:	be0d                	j	50000ade <uart_puthex64+0x32>
    50000fae:	e5d5                	bnez	a1,5000105a <crc32_tab+0x3e2>
    50000fb0:	7cdcefb7          	lui	t6,0x7cdce
    50000fb4:	df21                	beqz	a4,50000f0c <crc32_tab+0x294>
    50000fb6:	d2d40bdb          	.insn	4, 0xd2d40bdb
    50000fba:	e24286d3          	.insn	4, 0xe24286d3
    50000fbe:	f1d4                	sd	a3,160(a1)
    50000fc0:	b3f8                	.insn	2, 0xb3f8
    50000fc2:	68dd                	lui	a7,0x17
    50000fc4:	836e                	mv	t1,s11
    50000fc6:	1fda                	slli	t6,t6,0x36
    50000fc8:	16cd                	addi	a3,a3,-13
    50000fca:	81be                	mv	gp,a5
    50000fcc:	f6b9265b          	.insn	4, 0xf6b9265b
    50000fd0:	77e1                	lui	a5,0xffff8
    50000fd2:	6fb0                	ld	a2,88(a5)
    50000fd4:	18b74777          	.insn	4, 0x18b74777
    50000fd8:	5ae6                	lw	s5,120(sp)
    50000fda:	8808                	.insn	2, 0x8808
    50000fdc:	6a70                	ld	a2,208(a2)
    50000fde:	3bcaff0f          	.insn	4, 0x3bcaff0f
    50000fe2:	6606                	ld	a2,64(sp)
    50000fe4:	0b5c                	addi	a5,sp,404
    50000fe6:	1101                	addi	sp,sp,-32
    50000fe8:	8f659eff f862ae69 	.insn	12, 0x616bffd3f862ae698f659eff
    50000ff0:	616bffd3 
    50000ff4:	cf45                	beqz	a4,500010ac <_krodata_end+0x1c>
    50000ff6:	166c                	addi	a1,sp,812
    50000ff8:	e278                	sd	a4,192(a2)
    50000ffa:	a00a                	.insn	2, 0xa00a
    50000ffc:	d2ee                	sw	s11,100(sp)
    50000ffe:	d70d                	beqz	a4,50000f28 <crc32_tab+0x2b0>
    50001000:	8354                	.insn	2, 0x8354
    50001002:	4e04                	lw	s1,24(a2)
    50001004:	b3c2                	.insn	2, 0xb3c2
    50001006:	26613903          	ld	s2,614(sp)
    5000100a:	16f7a767          	.insn	4, 0x16f7a767
    5000100e:	d060                	sw	s0,100(s0)
    50001010:	474d                	li	a4,19
    50001012:	4969                	li	s2,26
    50001014:	3e6e77db          	.insn	4, 0x3e6e77db
    50001018:	6a4a                	ld	s4,144(sp)
    5000101a:	aed1                	j	500013ee <_krodata_end+0x35e>
    5000101c:	5adc                	lw	a5,52(a3)
    5000101e:	d9d6                	sw	s5,240(sp)
    50001020:	0b66                	slli	s6,s6,0x19
    50001022:	40df 3bf0 37d8      	.insn	6, 0x37d83bf040df
    50001028:	a9bcae53          	.insn	4, 0xa9bcae53
    5000102c:	9ec5                	.insn	2, 0x9ec5
    5000102e:	cf7fdebb          	.insn	4, 0xcf7fdebb
    50001032:	47b2                	lw	a5,12(sp)
    50001034:	ffe9                	bnez	a5,5000100e <crc32_tab+0x396>
    50001036:	30b5                	addiw	ra,ra,-19
    50001038:	f21c                	sd	a5,32(a2)
    5000103a:	bdbd                	j	50000eb8 <crc32_tab+0x240>
    5000103c:	c28a                	sw	sp,68(sp)
    5000103e:	caba                	sw	a4,84(sp)
    50001040:	9330                	.insn	2, 0x9330
    50001042:	a3a653b3          	.insn	4, 0xa3a653b3
    50001046:	24b4                	.insn	2, 0x24b4
    50001048:	3605                	addiw	a2,a2,-31
    5000104a:	bad0                	.insn	2, 0xbad0
    5000104c:	cdd70693          	addi	a3,a4,-803
    50001050:	5729                	li	a4,-22
    50001052:	54de                	lw	s1,244(sp)
    50001054:	23d967bf b3667a2e 	.insn	8, 0xb3667a2e23d967bf
    5000105c:	4ab8                	lw	a4,80(a3)
    5000105e:	c461                	beqz	s0,50001126 <_krodata_end+0x96>
    50001060:	1b02                	slli	s6,s6,0x20
    50001062:	5d68                	lw	a0,124(a0)
    50001064:	2b94                	.insn	2, 0x2b94
    50001066:	be372a6f          	jal	s4,4ff73c48 <__stack_size+0x4fe73c48>
    5000106a:	8ea1b40b          	.insn	4, 0x8ea1b40b
    5000106e:	c30c                	sw	a1,0(a4)
    50001070:	5a05df1b          	.insn	4, 0x5a05df1b
    50001074:	ef8d                	bnez	a5,500010ae <_krodata_end+0x1e>
    50001076:	2d02                	.insn	2, 0x2d02

0000000050001078 <UART2>:
    50001078:	aa00                	.insn	2, 0xaa00
    5000107a:	2000                	.insn	2, 0x2000
    5000107c:	0000                	unimp
	...

0000000050001080 <UART1>:
    50001080:	a100                	.insn	2, 0xa100
    50001082:	2000                	.insn	2, 0x2000
    50001084:	0000                	unimp
	...

0000000050001088 <UART0>:
    50001088:	a000                	.insn	2, 0xa000
    5000108a:	2000                	.insn	2, 0x2000
    5000108c:	0000                	unimp
	...
